target datalayout = "e-m:e-p270:32:32-p271:32:32-p272:64:64-i64:64-i128:128-f80:128-n8:16:32:64-S128"
target triple = "x86_64-pc-linux-gnu"

%"class.sat::literal" = type { i32 }
%"class.smt::justification.base" = type <{ ptr, i8 }>
%class.buffer = type { ptr, i32, i32, [128 x i8] }
%"class.smt::simple_justification" = type { %"class.smt::justification.base", i32, ptr }

; Function Attrs: mustprogress uwtable
define linkonce_odr hidden void @_Z13dealloc_svectIP3appEvPT_(ptr noundef %0) #6 comdat {
  %2 = alloca ptr, align 8
  store ptr %0, ptr %2, align 8, !tbaa !637
  %3 = load ptr, ptr %2, align 8, !tbaa !637
  %4 = icmp eq ptr %3, null
  br i1 %4, label %5, label %6

5:                                                ; preds = %1
  br label %8

6:                                                ; preds = %1
  %7 = load ptr, ptr %2, align 8, !tbaa !637
  call void @_ZN6memory10deallocateEPv(ptr noundef %7)
  br label %8

8:                                                ; preds = %6, %5
  ret void
}

; Function Attrs: mustprogress uwtable
define linkonce_odr hidden void @_ZN6bufferIP3appLb0ELj16EE11free_memoryEv(ptr noundef nonnull align 8 dereferenceable(144) %0) #6 comdat align 2 {
  %2 = alloca ptr, align 8
  store ptr %0, ptr %2, align 8, !tbaa !635
  %3 = load ptr, ptr %2, align 8
  %4 = getelementptr inbounds nuw %class.buffer, ptr %3, i32 0, i32 0
  %5 = load ptr, ptr %4, align 8, !tbaa !640
  %6 = getelementptr inbounds nuw %class.buffer, ptr %3, i32 0, i32 3
  %7 = getelementptr inbounds [128 x i8], ptr %6, i64 0, i64 0
  %8 = icmp ne ptr %5, %7
  br i1 %8, label %9, label %12

9:                                                ; preds = %1
  %10 = getelementptr inbounds nuw %class.buffer, ptr %3, i32 0, i32 0
  %11 = load ptr, ptr %10, align 8, !tbaa !640
  call void @_Z13dealloc_svectIP3appEvPT_(ptr noundef %11)
  br label %12

12:                                               ; preds = %9, %1
  ret void
}

; Function Attrs: mustprogress uwtable
define linkonce_odr hidden void @_ZN6bufferIP3appLb0ELj16EE6expandEv(ptr noundef nonnull align 8 dereferenceable(144) %0) #6 comdat align 2 {
  %2 = alloca ptr, align 8
  %3 = alloca i32, align 4
  %4 = alloca ptr, align 8
  %5 = alloca i32, align 4
  store ptr %0, ptr %2, align 8, !tbaa !635
  %6 = load ptr, ptr %2, align 8
  call void @llvm.lifetime.start.p0(i64 4, ptr %3) #3
  %7 = getelementptr inbounds nuw %class.buffer, ptr %6, i32 0, i32 2
  %8 = load i32, ptr %7, align 4, !tbaa !639
  %9 = shl i32 %8, 1
  store i32 %9, ptr %3, align 4, !tbaa !8
  call void @llvm.lifetime.start.p0(i64 8, ptr %4) #3
  %10 = load i32, ptr %3, align 4, !tbaa !8
  %11 = zext i32 %10 to i64
  %12 = mul i64 8, %11
  %13 = call noalias noundef ptr @_ZN6memory8allocateEm(i64 noundef %12)
  store ptr %13, ptr %4, align 8, !tbaa !637
  call void @llvm.lifetime.start.p0(i64 4, ptr %5) #3
  store i32 0, ptr %5, align 4, !tbaa !8
  br label %14

14:                                               ; preds = %31, %1
  %15 = load i32, ptr %5, align 4, !tbaa !8
  %16 = getelementptr inbounds nuw %class.buffer, ptr %6, i32 0, i32 1
  %17 = load i32, ptr %16, align 8, !tbaa !638
  %18 = icmp ult i32 %15, %17
  br i1 %18, label %20, label %19

19:                                               ; preds = %14
  call void @llvm.lifetime.end.p0(i64 4, ptr %5) #3
  br label %34

20:                                               ; preds = %14
  %21 = load ptr, ptr %4, align 8, !tbaa !637
  %22 = load i32, ptr %5, align 4, !tbaa !8
  %23 = zext i32 %22 to i64
  %24 = getelementptr inbounds nuw ptr, ptr %21, i64 %23
  %25 = getelementptr inbounds nuw %class.buffer, ptr %6, i32 0, i32 0
  %26 = load ptr, ptr %25, align 8, !tbaa !640
  %27 = load i32, ptr %5, align 4, !tbaa !8
  %28 = zext i32 %27 to i64
  %29 = getelementptr inbounds nuw ptr, ptr %26, i64 %28
  %30 = load ptr, ptr %29, align 8, !tbaa !32
  store ptr %30, ptr %24, align 8, !tbaa !32
  br label %31

31:                                               ; preds = %20
  %32 = load i32, ptr %5, align 4, !tbaa !8
  %33 = add i32 %32, 1
  store i32 %33, ptr %5, align 4, !tbaa !8
  br label %14, !llvm.loop !911

34:                                               ; preds = %19
  call void @_ZN6bufferIP3appLb0ELj16EE11free_memoryEv(ptr noundef nonnull align 8 dereferenceable(144) %6)
  %35 = load ptr, ptr %4, align 8, !tbaa !637
  %36 = getelementptr inbounds nuw %class.buffer, ptr %6, i32 0, i32 0
  store ptr %35, ptr %36, align 8, !tbaa !640
  %37 = load i32, ptr %3, align 4, !tbaa !8
  %38 = getelementptr inbounds nuw %class.buffer, ptr %6, i32 0, i32 2
  store i32 %37, ptr %38, align 4, !tbaa !639
  call void @llvm.lifetime.end.p0(i64 8, ptr %4) #3
  call void @llvm.lifetime.end.p0(i64 4, ptr %3) #3
  ret void
}

; Function Attrs: mustprogress uwtable
define linkonce_odr hidden void @_ZN6bufferIP3appLb0ELj16EE9push_backERKS1_(ptr noundef nonnull align 8 dereferenceable(144) %0, ptr noundef nonnull align 8 dereferenceable(8) %1) #6 comdat align 2 {
  %3 = alloca ptr, align 8
  %4 = alloca ptr, align 8
  store ptr %0, ptr %3, align 8, !tbaa !635
  store ptr %1, ptr %4, align 8, !tbaa !637
  %5 = load ptr, ptr %3, align 8
  %6 = getelementptr inbounds nuw %class.buffer, ptr %5, i32 0, i32 1
  %7 = load i32, ptr %6, align 8, !tbaa !638
  %8 = getelementptr inbounds nuw %class.buffer, ptr %5, i32 0, i32 2
  %9 = load i32, ptr %8, align 4, !tbaa !639
  %10 = icmp uge i32 %7, %9
  br i1 %10, label %11, label %12

11:                                               ; preds = %2
  call void @_ZN6bufferIP3appLb0ELj16EE6expandEv(ptr noundef nonnull align 8 dereferenceable(144) %5)
  br label %12

12:                                               ; preds = %11, %2
  %13 = getelementptr inbounds nuw %class.buffer, ptr %5, i32 0, i32 0
  %14 = load ptr, ptr %13, align 8, !tbaa !640
  %15 = getelementptr inbounds nuw %class.buffer, ptr %5, i32 0, i32 1
  %16 = load i32, ptr %15, align 8, !tbaa !638
  %17 = zext i32 %16 to i64
  %18 = getelementptr inbounds nuw ptr, ptr %14, i64 %17
  %19 = load ptr, ptr %4, align 8, !tbaa !637
  %20 = load ptr, ptr %19, align 8, !tbaa !32
  store ptr %20, ptr %18, align 8, !tbaa !32
  %21 = getelementptr inbounds nuw %class.buffer, ptr %5, i32 0, i32 1
  %22 = load i32, ptr %21, align 8, !tbaa !638
  %23 = add i32 %22, 1
  store i32 %23, ptr %21, align 8, !tbaa !638
  ret void
}

; Function Attrs: mustprogress uwtable
define hidden noundef zeroext i1 @_ZN3smt20simple_justification16antecedent2proofERNS_19conflict_resolutionER10ptr_bufferI3appLj16EE(ptr noundef nonnull align 8 dereferenceable(24) %0, ptr noundef nonnull align 8 dereferenceable(356) %1, ptr noundef nonnull align 8 dereferenceable(144) %2) #6 align 2 {
  %4 = alloca ptr, align 8
  %5 = alloca ptr, align 8
  %6 = alloca ptr, align 8
  %7 = alloca i8, align 1
  %8 = alloca i32, align 4
  %9 = alloca ptr, align 8
  %10 = alloca %"class.sat::literal", align 4
  store ptr %0, ptr %4, align 8, !tbaa !661
  store ptr %1, ptr %5, align 8, !tbaa !533
  store ptr %2, ptr %6, align 8, !tbaa !592
  %11 = load ptr, ptr %4, align 8
  call void @llvm.lifetime.start.p0(i64 1, ptr %7) #3
  store i8 1, ptr %7, align 1, !tbaa !10
  call void @llvm.lifetime.start.p0(i64 4, ptr %8) #3
  store i32 0, ptr %8, align 4, !tbaa !8
  br label %12

12:                                               ; preds = %34, %3
  %13 = load i32, ptr %8, align 4, !tbaa !8
  %14 = getelementptr inbounds nuw %"class.smt::simple_justification", ptr %11, i32 0, i32 1
  %15 = load i32, ptr %14, align 4, !tbaa !663
  %16 = icmp ult i32 %13, %15
  br i1 %16, label %18, label %17

17:                                               ; preds = %12
  call void @llvm.lifetime.end.p0(i64 4, ptr %8) #3
  br label %37

18:                                               ; preds = %12
  call void @llvm.lifetime.start.p0(i64 8, ptr %9) #3
  %19 = load ptr, ptr %5, align 8, !tbaa !533
  %20 = getelementptr inbounds nuw %"class.smt::simple_justification", ptr %11, i32 0, i32 2
  %21 = load ptr, ptr %20, align 8, !tbaa !665
  %22 = load i32, ptr %8, align 4, !tbaa !8
  %23 = zext i32 %22 to i64
  %24 = getelementptr inbounds nuw %"class.sat::literal", ptr %21, i64 %23
  call void @llvm.memcpy.p0.p0.i64(ptr align 4 %10, ptr align 4 %24, i64 4, i1 false), !tbaa.struct !543
  %25 = getelementptr inbounds nuw %"class.sat::literal", ptr %10, i32 0, i32 0
  %26 = load i32, ptr %25, align 4
  %27 = call noundef ptr @_ZN3smt19conflict_resolution9get_proofEN3sat7literalE(ptr noundef nonnull align 8 dereferenceable(356) %19, i32 %26)
  store ptr %27, ptr %9, align 8, !tbaa !32
  %28 = load ptr, ptr %9, align 8, !tbaa !32
  %29 = icmp eq ptr %28, null
  br i1 %29, label %30, label %31

30:                                               ; preds = %18
  store i8 0, ptr %7, align 1, !tbaa !10
  br label %33

31:                                               ; preds = %18
  %32 = load ptr, ptr %6, align 8, !tbaa !592
  call void @_ZN6bufferIP3appLb0ELj16EE9push_backERKS1_(ptr noundef nonnull align 8 dereferenceable(144) %32, ptr noundef nonnull align 8 dereferenceable(8) %9)
  br label %33

33:                                               ; preds = %31, %30
  call void @llvm.lifetime.end.p0(i64 8, ptr %9) #3
  br label %34

34:                                               ; preds = %33
  %35 = load i32, ptr %8, align 4, !tbaa !8
  %36 = add i32 %35, 1
  store i32 %36, ptr %8, align 4, !tbaa !8
  br label %12, !llvm.loop !667

37:                                               ; preds = %17
  %38 = load i8, ptr %7, align 1, !tbaa !10, !range !12, !noundef !13
  %39 = trunc i8 %38 to i1
  call void @llvm.lifetime.end.p0(i64 1, ptr %7) #3
  ret i1 %39
}