; Function Attrs: mustprogress uwtable
define hidden noundef zeroext i1 @_ZN3smt20simple_justification16antecedent2proofERNS_19conflict_resolutionER10ptr_bufferI3appLj16EE(ptr noundef nonnull readonly align 8 captures(none) dereferenceable(24) %0, ptr noundef nonnull align 8 dereferenceable(356) %1, ptr noundef nonnull align 8 captures(address) dereferenceable(144) %2) local_unnamed_addr #5 align 2 {
  %4 = getelementptr inbounds nuw i8, ptr %0, i64 12
  %5 = load i32, ptr %4, align 4, !tbaa !205
  %.not = icmp eq i32 %5, 0
  br i1 %.not, label %._crit_edge, label %.lr.ph

.lr.ph:                                           ; preds = %3
  %6 = getelementptr inbounds nuw i8, ptr %0, i64 16
  %7 = getelementptr inbounds nuw i8, ptr %2, i64 8
  %8 = getelementptr inbounds nuw i8, ptr %2, i64 12
  %9 = getelementptr inbounds nuw i8, ptr %2, i64 16
  br label %10

._crit_edge:                                      ; preds = %35, %3
  %.0.lcssa = phi i1 [ true, %3 ], [ %.1, %35 ]
  ret i1 %.0.lcssa

10:                                               ; preds = %.lr.ph, %35
  %indvars.iv = phi i64 [ 0, %.lr.ph ], [ %indvars.iv.next, %35 ]
  %.08 = phi i1 [ true, %.lr.ph ], [ %.1, %35 ]
  %11 = load ptr, ptr %6, align 8, !tbaa !207
  %12 = getelementptr inbounds nuw %"class.sat::literal", ptr %11, i64 %indvars.iv
  %.sroa.0.0.copyload = load i32, ptr %12, align 4, !tbaa !29
  %13 = tail call noundef ptr @_ZN3smt19conflict_resolution9get_proofEN3sat7literalE(ptr noundef nonnull align 8 dereferenceable(356) %1, i32 %.sroa.0.0.copyload)
  %14 = icmp eq ptr %13, null
  br i1 %14, label %35, label %15

15:                                               ; preds = %10
  %16 = load i32, ptr %7, align 8, !tbaa !119
  %17 = load i32, ptr %8, align 4, !tbaa !120
  %.not.i = icmp ult i32 %16, %17
  br i1 %.not.i, label %._crit_edge.i, label %18

._crit_edge.i:                                    ; preds = %15
  %.pre.i = load ptr, ptr %2, align 8, !tbaa !117
  br label %_ZN6bufferIP3appLb0ELj16EE9push_backERKS1_.exit

18:                                               ; preds = %15
  %19 = shl i32 %17, 1
  %20 = zext i32 %19 to i64
  %21 = shl nuw nsw i64 %20, 3
  %22 = tail call noalias noundef ptr @_ZN6memory8allocateEm(i64 noundef %21)
  %23 = load i32, ptr %7, align 8, !tbaa !119
  %.not.i.i = icmp eq i32 %23, 0
  %.pre.i.i = load ptr, ptr %2, align 8, !tbaa !117
  br i1 %.not.i.i, label %._crit_edge.i.i, label %.lr.ph.i.i

.lr.ph.i.i:                                       ; preds = %18
  %wide.trip.count.i.i = zext i32 %23 to i64
  br label %26

._crit_edge.i.i:                                  ; preds = %26, %18
  %.not.i.i.i = icmp eq ptr %.pre.i.i, %9
  %24 = icmp eq ptr %.pre.i.i, null
  %or.cond.i.i.i = or i1 %.not.i.i.i, %24
  br i1 %or.cond.i.i.i, label %_ZN6bufferIP3appLb0ELj16EE6expandEv.exit.i, label %25

25:                                               ; preds = %._crit_edge.i.i
  tail call void @_ZN6memory10deallocateEPv(ptr noundef nonnull %.pre.i.i)
  %.pre2.pre.i = load i32, ptr %7, align 8, !tbaa !119
  br label %_ZN6bufferIP3appLb0ELj16EE6expandEv.exit.i

26:                                               ; preds = %26, %.lr.ph.i.i
  %indvars.iv.i.i = phi i64 [ 0, %.lr.ph.i.i ], [ %indvars.iv.next.i.i, %26 ]
  %27 = getelementptr inbounds nuw ptr, ptr %22, i64 %indvars.iv.i.i
  %28 = getelementptr inbounds nuw ptr, ptr %.pre.i.i, i64 %indvars.iv.i.i
  %29 = load ptr, ptr %28, align 8, !tbaa !89
  store ptr %29, ptr %27, align 8, !tbaa !89
  %indvars.iv.next.i.i = add nuw nsw i64 %indvars.iv.i.i, 1
  %exitcond.not.i.i = icmp eq i64 %indvars.iv.next.i.i, %wide.trip.count.i.i
  br i1 %exitcond.not.i.i, label %._crit_edge.i.i, label %26, !llvm.loop !182

_ZN6bufferIP3appLb0ELj16EE6expandEv.exit.i:       ; preds = %25, %._crit_edge.i.i
  %.pre2.i = phi i32 [ %23, %._crit_edge.i.i ], [ %.pre2.pre.i, %25 ]
  store ptr %22, ptr %2, align 8, !tbaa !117
  store i32 %19, ptr %8, align 4, !tbaa !120
  br label %_ZN6bufferIP3appLb0ELj16EE9push_backERKS1_.exit

_ZN6bufferIP3appLb0ELj16EE9push_backERKS1_.exit:  ; preds = %._crit_edge.i, %_ZN6bufferIP3appLb0ELj16EE6expandEv.exit.i
  %30 = phi i32 [ %16, %._crit_edge.i ], [ %.pre2.i, %_ZN6bufferIP3appLb0ELj16EE6expandEv.exit.i ]
  %31 = phi ptr [ %.pre.i, %._crit_edge.i ], [ %22, %_ZN6bufferIP3appLb0ELj16EE6expandEv.exit.i ]
  %32 = zext i32 %30 to i64
  %33 = getelementptr inbounds nuw ptr, ptr %31, i64 %32
  store ptr %13, ptr %33, align 8, !tbaa !89
  %34 = add i32 %30, 1
  store i32 %34, ptr %7, align 8, !tbaa !119
  br label %35

35:                                               ; preds = %10, %_ZN6bufferIP3appLb0ELj16EE9push_backERKS1_.exit
  %.1 = phi i1 [ %.08, %_ZN6bufferIP3appLb0ELj16EE9push_backERKS1_.exit ], [ false, %10 ]
  %indvars.iv.next = add nuw nsw i64 %indvars.iv, 1
  %36 = load i32, ptr %4, align 4, !tbaa !205
  %37 = zext i32 %36 to i64
  %38 = icmp samesign ult i64 %indvars.iv.next, %37
  br i1 %38, label %10, label %._crit_edge, !llvm.loop !209
}